ccopy_reg
_reconstructor
p1
(cxmppd.modules.db_fake
DictWatch
p2
c__builtin__
dict
p3
(dp4
S'10.12.19.67'
p5
g1
(g2
g3
(dp6
S'acc'
p7
g1
(g2
g3
(dp8
S'name'
p9
S'ACC'
p10
sS'groups'
p11
g1
(g2
g3
(dtRp12
sS'roster'
p13
g1
(g2
g3
(dtRp14
sS'anon_allow'
p15
S'yes'
p16
sS'password'
p17
S'ohOUnrJQ'
p18
sS'storage'
p19
g1
(g2
g3
(dtRp20
stRp21
sVlight_bulb_agent
p22
g1
(g2
g3
(dp23
g9
Vlight_bulb_agent
p24
sg11
g1
(g2
g3
(dtRp25
sg13
g1
(g2
g3
(dp26
Vams.10.12.19.67
p27
(dp28
S'state'
p29
S''
sS'subscription'
p30
S'to'
p31
sstRp32
sg15
g16
sg17
Vsecret
p33
sg19
g1
(g2
g3
(dtRp34
stRp35
sVblinds_agent
p36
g1
(g2
g3
(dp37
g9
Vblinds_agent
p38
sg11
g1
(g2
g3
(dtRp39
sg13
g1
(g2
g3
(dp40
Vams.10.12.19.67
p41
(dp42
g29
S''
sg30
g31
sstRp43
sg15
g16
sg17
Vsecret
p44
sg19
g1
(g2
g3
(dtRp45
stRp46
sS'df'
p47
g1
(g2
g3
(dp48
g9
S'DF'
p49
sg11
g1
(g2
g3
(dtRp50
sg13
g1
(g2
g3
(dtRp51
sg15
g16
sg17
S'kLhpUdvw'
p52
sg19
g1
(g2
g3
(dtRp53
stRp54
sVlamp_agent
p55
g1
(g2
g3
(dp56
g9
Vlamp_agent
p57
sg11
g1
(g2
g3
(dtRp58
sg13
g1
(g2
g3
(dp59
Vams.10.12.19.67
p60
(dp61
g29
S''
sg30
g31
sstRp62
sg15
g16
sg17
Vsecret
p63
sg19
g1
(g2
g3
(dtRp64
stRp65
sVnight_stand_agent
p66
g1
(g2
g3
(dp67
g9
Vnight_stand_agent
p68
sg11
g1
(g2
g3
(dtRp69
sg13
g1
(g2
g3
(dp70
Vams.10.12.19.67
p71
(dp72
g29
S''
sg30
g31
sstRp73
sg15
g16
sg17
Vsecret
p74
sg19
g1
(g2
g3
(dtRp75
stRp76
sVcontrol_agent
p77
g1
(g2
g3
(dp78
g9
Vcontrol_agent
p79
sg11
g1
(g2
g3
(dtRp80
sg13
g1
(g2
g3
(dp81
Vams.10.12.19.67
p82
(dp83
g29
S''
sg30
g31
sstRp84
sg15
g16
sg17
Vsecret
p85
sg19
g1
(g2
g3
(dtRp86
stRp87
sVrec_agent
p88
g1
(g2
g3
(dp89
g9
Vrec_agent
p90
sg11
g1
(g2
g3
(dtRp91
sg13
g1
(g2
g3
(dp92
Vams.10.12.19.67
p93
(dp94
g29
S''
sg30
g31
sstRp95
sg15
g16
sg17
Vsecret
p96
sg19
g1
(g2
g3
(dtRp97
stRp98
sS'ams'
p99
g1
(g2
g3
(dp100
g9
S'AMS'
p101
sg11
g1
(g2
g3
(dtRp102
sg13
g1
(g2
g3
(dp103
S'control_agent@10.12.19.67'
p104
(dp105
g29
S''
sg30
S'from'
p106
ssS'lamp_agent@10.12.19.67'
p107
(dp108
g29
S''
sg30
g106
ssS'night_stand_agent@10.12.19.67'
p109
(dp110
g29
S''
sg30
g106
ssS'blinds_agent@10.12.19.67'
p111
(dp112
g29
S''
sg30
g106
ssS'rec_agent@10.12.19.67'
p113
(dp114
g29
S''
sg30
g106
ssS'light_bulb_agent@10.12.19.67'
p115
(dp116
g29
S''
sg30
g106
sstRp117
sg15
g16
sg17
S'kqkhDhPO'
p118
sg19
g1
(g2
g3
(dtRp119
stRp120
sS'__ir__'
p121
(dp122
g15
g16
sg17
S'test'
p123
sg19
(dp124
S'karma'
p125
(dp126
S'down'
p127
I307200
sS'tot_up'
p128
I0
sS'tot_down'
p129
I0
sS'up'
p130
I307200307200307200
sS'last_time'
p131
F0
sssg11
(dp132
sg13
(dp133
sstRp134
sS'10.20.217.224'
p135
g1
(g2
g3
(dp136
S'acc'
p137
g1
(g2
g3
(dp138
S'name'
p139
S'ACC'
p140
sS'groups'
p141
g1
(g2
g3
(dtRp142
sS'roster'
p143
g1
(g2
g3
(dtRp144
sS'anon_allow'
p145
S'yes'
p146
sS'password'
p147
S'cJsSizkD'
p148
sS'storage'
p149
g1
(g2
g3
(dtRp150
stRp151
sVlight_bulb_agent
p152
g1
(g2
g3
(dp153
g139
Vlight_bulb_agent
p154
sg141
g1
(g2
g3
(dtRp155
sg143
g1
(g2
g3
(dp156
Vams.10.20.217.224
p157
(dp158
S'state'
p159
S''
sS'subscription'
p160
S'to'
p161
sstRp162
sg145
g146
sg147
Vsecret
p163
sg149
g1
(g2
g3
(dtRp164
stRp165
sVblinds_agent
p166
g1
(g2
g3
(dp167
g139
Vblinds_agent
p168
sg141
g1
(g2
g3
(dtRp169
sg143
g1
(g2
g3
(dp170
Vams.10.20.217.224
p171
(dp172
g159
S''
sg160
g161
sstRp173
sg145
g146
sg147
Vsecret
p174
sg149
g1
(g2
g3
(dtRp175
stRp176
sS'df'
p177
g1
(g2
g3
(dp178
g139
S'DF'
p179
sg141
g1
(g2
g3
(dtRp180
sg143
g1
(g2
g3
(dtRp181
sg145
g146
sg147
S'HgLuaRKh'
p182
sg149
g1
(g2
g3
(dtRp183
stRp184
sVlamp_agent
p185
g1
(g2
g3
(dp186
g139
Vlamp_agent
p187
sg141
g1
(g2
g3
(dtRp188
sg143
g1
(g2
g3
(dp189
Vams.10.20.217.224
p190
(dp191
g159
S''
sg160
g161
sstRp192
sg145
g146
sg147
Vsecret
p193
sg149
g1
(g2
g3
(dtRp194
stRp195
sVnight_stand_agent
p196
g1
(g2
g3
(dp197
g139
Vnight_stand_agent
p198
sg141
g1
(g2
g3
(dtRp199
sg143
g1
(g2
g3
(dp200
Vams.10.20.217.224
p201
(dp202
g159
S''
sg160
g161
sstRp203
sg145
g146
sg147
Vsecret
p204
sg149
g1
(g2
g3
(dtRp205
stRp206
sVcontrol_agent
p207
g1
(g2
g3
(dp208
g139
Vcontrol_agent
p209
sg141
g1
(g2
g3
(dtRp210
sg143
g1
(g2
g3
(dp211
Vams.10.20.217.224
p212
(dp213
g159
S''
sg160
g161
sstRp214
sg145
g146
sg147
Vsecret
p215
sg149
g1
(g2
g3
(dtRp216
stRp217
sVrec_agent
p218
g1
(g2
g3
(dp219
g139
Vrec_agent
p220
sg141
g1
(g2
g3
(dtRp221
sg143
g1
(g2
g3
(dp222
Vams.10.20.217.224
p223
(dp224
g159
S''
sg160
g161
sstRp225
sg145
g146
sg147
Vsecret
p226
sg149
g1
(g2
g3
(dtRp227
stRp228
sS'ams'
p229
g1
(g2
g3
(dp230
g139
S'AMS'
p231
sg141
g1
(g2
g3
(dtRp232
sg143
g1
(g2
g3
(dp233
S'night_stand_agent@10.20.217.224'
p234
(dp235
g159
S''
sg160
S'from'
p236
ssS'rec_agent@10.20.217.224'
p237
(dp238
g159
S''
sg160
g236
ssS'control_agent@10.20.217.224'
p239
(dp240
g159
S''
sg160
g236
ssS'lamp_agent@10.20.217.224'
p241
(dp242
g159
S''
sg160
g236
ssS'blinds_agent@10.20.217.224'
p243
(dp244
g159
S''
sg160
g236
ssS'light_bulb_agent@10.20.217.224'
p245
(dp246
g159
S''
sg160
g236
sstRp247
sg145
g146
sg147
S'oxmHKqGR'
p248
sg149
g1
(g2
g3
(dtRp249
stRp250
sS'__ir__'
p251
(dp252
g145
g146
sg147
S'test'
p253
sg149
(dp254
S'karma'
p255
(dp256
S'down'
p257
I307200
sS'tot_up'
p258
I0
sS'tot_down'
p259
I0
sS'up'
p260
I307200307200307200
sS'last_time'
p261
F0
sssg141
(dp262
sg143
(dp263
sstRp264
sS'192.168.0.116'
p265
g1
(g2
g3
(dp266
S'acc'
p267
g1
(g2
g3
(dp268
S'name'
p269
S'ACC'
p270
sS'groups'
p271
g1
(g2
g3
(dtRp272
sS'roster'
p273
g1
(g2
g3
(dtRp274
sS'anon_allow'
p275
S'yes'
p276
sS'password'
p277
S'JvfqZwPE'
p278
sS'storage'
p279
g1
(g2
g3
(dtRp280
stRp281
sVlight_bulb_agent
p282
g1
(g2
g3
(dp283
g269
Vlight_bulb_agent
p284
sg271
g1
(g2
g3
(dtRp285
sg273
g1
(g2
g3
(dp286
Vams.192.168.0.116
p287
(dp288
S'state'
p289
S''
sS'subscription'
p290
S'to'
p291
sstRp292
sg275
g276
sg277
Vsecret
p293
sg279
g1
(g2
g3
(dtRp294
stRp295
sVblinds_agent
p296
g1
(g2
g3
(dp297
g269
Vblinds_agent
p298
sg271
g1
(g2
g3
(dtRp299
sg273
g1
(g2
g3
(dp300
Vams.192.168.0.116
p301
(dp302
g289
S''
sg290
g291
sstRp303
sg275
g276
sg277
Vsecret
p304
sg279
g1
(g2
g3
(dtRp305
stRp306
sS'df'
p307
g1
(g2
g3
(dp308
g269
S'DF'
p309
sg271
g1
(g2
g3
(dtRp310
sg273
g1
(g2
g3
(dtRp311
sg275
g276
sg277
S'CPKIYexv'
p312
sg279
g1
(g2
g3
(dtRp313
stRp314
sVlamp_agent
p315
g1
(g2
g3
(dp316
g269
Vlamp_agent
p317
sg271
g1
(g2
g3
(dtRp318
sg273
g1
(g2
g3
(dp319
Vams.192.168.0.116
p320
(dp321
g289
S''
sg290
g291
sstRp322
sg275
g276
sg277
Vsecret
p323
sg279
g1
(g2
g3
(dtRp324
stRp325
sVnight_stand_agent
p326
g1
(g2
g3
(dp327
g269
Vnight_stand_agent
p328
sg271
g1
(g2
g3
(dtRp329
sg273
g1
(g2
g3
(dp330
Vams.192.168.0.116
p331
(dp332
g289
S''
sg290
g291
sstRp333
sg275
g276
sg277
Vsecret
p334
sg279
g1
(g2
g3
(dtRp335
stRp336
sVcontrol_agent
p337
g1
(g2
g3
(dp338
g269
Vcontrol_agent
p339
sg271
g1
(g2
g3
(dtRp340
sg273
g1
(g2
g3
(dp341
Vams.192.168.0.116
p342
(dp343
g289
S''
sg290
g291
sstRp344
sg275
g276
sg277
Vsecret
p345
sg279
g1
(g2
g3
(dtRp346
stRp347
sVrec_agent
p348
g1
(g2
g3
(dp349
g269
Vrec_agent
p350
sg271
g1
(g2
g3
(dtRp351
sg273
g1
(g2
g3
(dp352
Vams.192.168.0.116
p353
(dp354
g289
S''
sg290
g291
sstRp355
sg275
g276
sg277
Vsecret
p356
sg279
g1
(g2
g3
(dtRp357
stRp358
sS'ams'
p359
g1
(g2
g3
(dp360
g269
S'AMS'
p361
sg271
g1
(g2
g3
(dtRp362
sg273
g1
(g2
g3
(dp363
S'blinds_agent@192.168.0.116'
p364
(dp365
g289
S''
sg290
S'from'
p366
ssS'light_bulb_agent@192.168.0.116'
p367
(dp368
g289
S''
sg290
g366
ssS'lamp_agent@192.168.0.116'
p369
(dp370
g289
S''
sg290
g366
ssS'rec_agent@192.168.0.116'
p371
(dp372
g289
S''
sg290
g366
ssS'night_stand_agent@192.168.0.116'
p373
(dp374
g289
S''
sg290
g366
ssS'control_agent@192.168.0.116'
p375
(dp376
g289
S''
sg290
g366
sstRp377
sg275
g276
sg277
S'VPyDHDmD'
p378
sg279
g1
(g2
g3
(dtRp379
stRp380
sS'__ir__'
p381
(dp382
g275
g276
sg277
S'test'
p383
sg279
(dp384
S'karma'
p385
(dp386
S'down'
p387
I307200
sS'tot_up'
p388
I0
sS'tot_down'
p389
I0
sS'up'
p390
I307200307200307200
sS'last_time'
p391
F0
sssg271
(dp392
sg273
(dp393
sstRp394
sS'10.20.216.78'
p395
g1
(g2
g3
(dp396
S'acc'
p397
g1
(g2
g3
(dp398
S'name'
p399
S'ACC'
p400
sS'groups'
p401
g1
(g2
g3
(dtRp402
sS'roster'
p403
g1
(g2
g3
(dtRp404
sS'anon_allow'
p405
S'yes'
p406
sS'password'
p407
S'DAKbfMrX'
p408
sS'storage'
p409
g1
(g2
g3
(dtRp410
stRp411
sVlight_bulb_agent
p412
g1
(g2
g3
(dp413
g399
Vlight_bulb_agent
p414
sg401
g1
(g2
g3
(dtRp415
sg403
g1
(g2
g3
(dp416
Vams.10.20.216.78
p417
(dp418
S'state'
p419
S''
sS'subscription'
p420
S'to'
p421
sstRp422
sg405
g406
sg407
Vsecret
p423
sg409
g1
(g2
g3
(dtRp424
stRp425
sVblinds_agent
p426
g1
(g2
g3
(dp427
g399
Vblinds_agent
p428
sg401
g1
(g2
g3
(dtRp429
sg403
g1
(g2
g3
(dp430
Vams.10.20.216.78
p431
(dp432
g419
S''
sg420
g421
sstRp433
sg405
g406
sg407
Vsecret
p434
sg409
g1
(g2
g3
(dtRp435
stRp436
sS'df'
p437
g1
(g2
g3
(dp438
g399
S'DF'
p439
sg401
g1
(g2
g3
(dtRp440
sg403
g1
(g2
g3
(dtRp441
sg405
g406
sg407
S'qDGpqxcf'
p442
sg409
g1
(g2
g3
(dtRp443
stRp444
sVlamp_agent
p445
g1
(g2
g3
(dp446
g399
Vlamp_agent
p447
sg401
g1
(g2
g3
(dtRp448
sg403
g1
(g2
g3
(dp449
Vams.10.20.216.78
p450
(dp451
g419
S''
sg420
g421
sstRp452
sg405
g406
sg407
Vsecret
p453
sg409
g1
(g2
g3
(dtRp454
stRp455
sVnight_stand_agent
p456
g1
(g2
g3
(dp457
g399
Vnight_stand_agent
p458
sg401
g1
(g2
g3
(dtRp459
sg403
g1
(g2
g3
(dp460
Vams.10.20.216.78
p461
(dp462
g419
S''
sg420
g421
sstRp463
sg405
g406
sg407
Vsecret
p464
sg409
g1
(g2
g3
(dtRp465
stRp466
sVcontrol_agent
p467
g1
(g2
g3
(dp468
g399
Vcontrol_agent
p469
sg401
g1
(g2
g3
(dtRp470
sg403
g1
(g2
g3
(dp471
Vams.10.20.216.78
p472
(dp473
g419
S''
sg420
g421
sstRp474
sg405
g406
sg407
Vsecret
p475
sg409
g1
(g2
g3
(dtRp476
stRp477
sVrec_agent
p478
g1
(g2
g3
(dp479
g399
Vrec_agent
p480
sg401
g1
(g2
g3
(dtRp481
sg403
g1
(g2
g3
(dp482
Vams.10.20.216.78
p483
(dp484
g419
S''
sg420
g421
sstRp485
sg405
g406
sg407
Vsecret
p486
sg409
g1
(g2
g3
(dtRp487
stRp488
sS'ams'
p489
g1
(g2
g3
(dp490
g399
S'AMS'
p491
sg401
g1
(g2
g3
(dtRp492
sg403
g1
(g2
g3
(dp493
S'light_bulb_agent@10.20.216.78'
p494
(dp495
g419
S''
sg420
S'from'
p496
ssS'lamp_agent@10.20.216.78'
p497
(dp498
g419
S''
sg420
g496
ssS'rec_agent@10.20.216.78'
p499
(dp500
g419
S''
sg420
g496
ssS'night_stand_agent@10.20.216.78'
p501
(dp502
g419
S''
sg420
g496
ssS'blinds_agent@10.20.216.78'
p503
(dp504
g419
S''
sg420
g496
ssS'control_agent@10.20.216.78'
p505
(dp506
g419
S''
sg420
g496
sstRp507
sg405
g406
sg407
S'WnYHpenC'
p508
sg409
g1
(g2
g3
(dtRp509
stRp510
sS'__ir__'
p511
(dp512
g405
g406
sg407
S'test'
p513
sg409
(dp514
S'karma'
p515
(dp516
S'down'
p517
I307200
sS'tot_up'
p518
I0
sS'tot_down'
p519
I0
sS'up'
p520
I307200307200307200
sS'last_time'
p521
F0
sssg401
(dp522
sg403
(dp523
sstRp524
sS'127.0.0.1'
p525
g1
(g2
g3
(dp526
S'acc'
p527
g1
(g2
g3
(dp528
S'name'
p529
S'ACC'
p530
sS'groups'
p531
g1
(g2
g3
(dtRp532
sS'roster'
p533
g1
(g2
g3
(dtRp534
sS'anon_allow'
p535
S'yes'
p536
sS'password'
p537
S'HKzRhxSG'
p538
sS'storage'
p539
g1
(g2
g3
(dtRp540
stRp541
sVlight_bulb_agent
p542
g1
(g2
g3
(dp543
S'name'
p544
Vlight_bulb_agent
p545
sS'groups'
p546
g1
(g2
g3
(dtRp547
sS'roster'
p548
g1
(g2
g3
(dp549
Vams.127.0.0.1
p550
(dp551
S'state'
p552
S''
sS'subscription'
p553
S'none'
p554
sstRp555
sS'anon_allow'
p556
S'yes'
p557
sS'password'
p558
Vsecret
p559
sS'storage'
p560
g1
(g2
g3
(dtRp561
stRp562
sVblinds_agent
p563
g1
(g2
g3
(dp564
g544
Vblinds_agent
p565
sg546
g1
(g2
g3
(dtRp566
sg548
g1
(g2
g3
(dp567
Vams.127.0.0.1
p568
(dp569
g552
S''
sg553
g554
sstRp570
sg556
g557
sg558
Vsecret
p571
sg560
g1
(g2
g3
(dtRp572
stRp573
sS'df'
p574
g1
(g2
g3
(dp575
g529
S'DF'
p576
sg531
g1
(g2
g3
(dtRp577
sg533
g1
(g2
g3
(dtRp578
sg535
g536
sg537
S'aEPzXKzH'
p579
sg539
g1
(g2
g3
(dtRp580
stRp581
sVlamp_agent
p582
g1
(g2
g3
(dp583
g544
Vlamp_agent
p584
sg546
g1
(g2
g3
(dtRp585
sg548
g1
(g2
g3
(dp586
Vams.127.0.0.1
p587
(dp588
g552
S''
sg553
g554
sstRp589
sg556
g557
sg558
Vsecret
p590
sg560
g1
(g2
g3
(dtRp591
stRp592
sVblind_agent
p593
g1
(g2
g3
(dp594
g544
Vblind_agent
p595
sg546
g1
(g2
g3
(dtRp596
sg548
g1
(g2
g3
(dp597
Vams.127.0.0.1
p598
(dp599
g552
S''
sg553
S'none'
p600
sstRp601
sg556
g557
sg558
Vsecret
p602
sg560
g1
(g2
g3
(dtRp603
stRp604
sVnight_stand_agent
p605
g1
(g2
g3
(dp606
g544
Vnight_stand_agent
p607
sg546
g1
(g2
g3
(dtRp608
sg548
g1
(g2
g3
(dp609
Vams.127.0.0.1
p610
(dp611
g552
S''
sg553
g554
sstRp612
sg556
g557
sg558
Vsecret
p613
sg560
g1
(g2
g3
(dtRp614
stRp615
sVcontrol_agent
p616
g1
(g2
g3
(dp617
g544
Vcontrol_agent
p618
sg546
g1
(g2
g3
(dtRp619
sg548
g1
(g2
g3
(dp620
Vams.127.0.0.1
p621
(dp622
g552
S''
sg553
g554
sstRp623
sg556
g557
sg558
Vsecret
p624
sg560
g1
(g2
g3
(dtRp625
stRp626
sVrec_agent
p627
g1
(g2
g3
(dp628
g544
Vrec_agent
p629
sg546
g1
(g2
g3
(dtRp630
sg548
g1
(g2
g3
(dp631
Vams.127.0.0.1
p632
(dp633
g552
S''
sg553
g554
sstRp634
sg556
g557
sg558
Vsecret
p635
sg560
g1
(g2
g3
(dtRp636
stRp637
sS'ams'
p638
g1
(g2
g3
(dp639
g529
S'AMS'
p640
sg531
g1
(g2
g3
(dtRp641
sg533
g1
(g2
g3
(dp642
S'control_agent@127.0.0.1'
p643
(dp644
S'state'
p645
S''
sS'subscription'
p646
g554
ssS'rec_agent@127.0.0.1'
p647
(dp648
g645
S''
sg646
g554
ssS'blinds_agent@127.0.0.1'
p649
(dp650
g645
S''
sg646
g554
ssS'lamp_agent@127.0.0.1'
p651
(dp652
g645
S''
sg646
g554
ssS'light_bulb_agent@127.0.0.1'
p653
(dp654
g645
S''
sg646
g554
ssS'night_stand_agent@127.0.0.1'
p655
(dp656
g645
S''
sg646
g554
sstRp657
sg535
g536
sg537
S'dEaiJDMb'
p658
sg539
g1
(g2
g3
(dtRp659
stRp660
sS'__ir__'
p661
(dp662
g535
g536
sg537
S'test'
p663
sg539
(dp664
S'karma'
p665
(dp666
S'down'
p667
I307200
sS'tot_up'
p668
I0
sS'tot_down'
p669
I0
sS'up'
p670
I307200307200307200
sS'last_time'
p671
F0
sssg531
(dp672
sg533
(dp673
sstRp674
sS'192.168.0.110'
p675
g1
(g2
g3
(dp676
S'acc'
p677
g1
(g2
g3
(dp678
S'name'
p679
S'ACC'
p680
sS'groups'
p681
g1
(g2
g3
(dtRp682
sS'roster'
p683
g1
(g2
g3
(dtRp684
sS'anon_allow'
p685
S'yes'
p686
sS'password'
p687
S'bSWbMlSb'
p688
sS'storage'
p689
g1
(g2
g3
(dtRp690
stRp691
sS'df'
p692
g1
(g2
g3
(dp693
g679
S'DF'
p694
sg681
g1
(g2
g3
(dtRp695
sg683
g1
(g2
g3
(dtRp696
sg685
g686
sg687
S'oVEhpYYO'
p697
sg689
g1
(g2
g3
(dtRp698
stRp699
sS'ams'
p700
g1
(g2
g3
(dp701
g679
S'AMS'
p702
sg681
g1
(g2
g3
(dtRp703
sg683
g1
(g2
g3
(dp704
S'blinds_agent@192.168.0.110'
p705
(dp706
S'state'
p707
S''
sS'subscription'
p708
S'none'
p709
sstRp710
sg685
g686
sg687
S'cEQlryCt'
p711
sg689
g1
(g2
g3
(dtRp712
stRp713
sVblinds_agent
p714
g1
(g2
g3
(dp715
g679
Vblinds_agent
p716
sg681
g1
(g2
g3
(dtRp717
sg683
g1
(g2
g3
(dp718
Vams.192.168.0.110
p719
(dp720
g707
S''
sg708
g709
sstRp721
sg685
g686
sg687
Vsecret
p722
sg689
g1
(g2
g3
(dtRp723
stRp724
sS'__ir__'
p725
(dp726
g685
g686
sg687
S'test'
p727
sg689
(dp728
S'karma'
p729
(dp730
S'down'
p731
I307200
sS'tot_up'
p732
I0
sS'tot_down'
p733
I0
sS'up'
p734
I307200307200307200
sS'last_time'
p735
F0
sssg681
(dp736
sg683
(dp737
sstRp738
sS'192.168.0.111'
p739
g1
(g2
g3
(dp740
S'acc'
p741
g1
(g2
g3
(dp742
S'name'
p743
S'ACC'
p744
sS'groups'
p745
g1
(g2
g3
(dtRp746
sS'roster'
p747
g1
(g2
g3
(dtRp748
sS'anon_allow'
p749
S'yes'
p750
sS'password'
p751
S'RjsTPJeG'
p752
sS'storage'
p753
g1
(g2
g3
(dtRp754
stRp755
sVlight_bulb_agent
p756
g1
(g2
g3
(dp757
g743
Vlight_bulb_agent
p758
sg745
g1
(g2
g3
(dtRp759
sg747
g1
(g2
g3
(dp760
Vams.192.168.0.111
p761
(dp762
S'state'
p763
S''
sS'subscription'
p764
S'to'
p765
sstRp766
sg749
g750
sg751
Vsecret
p767
sg753
g1
(g2
g3
(dtRp768
stRp769
sVblinds_agent
p770
g1
(g2
g3
(dp771
g743
Vblinds_agent
p772
sg745
g1
(g2
g3
(dtRp773
sg747
g1
(g2
g3
(dp774
Vams.192.168.0.111
p775
(dp776
g763
S''
sg764
g765
sstRp777
sg749
g750
sg751
Vsecret
p778
sg753
g1
(g2
g3
(dtRp779
stRp780
sS'df'
p781
g1
(g2
g3
(dp782
g743
S'DF'
p783
sg745
g1
(g2
g3
(dtRp784
sg747
g1
(g2
g3
(dtRp785
sg749
g750
sg751
S'EcIFhCCm'
p786
sg753
g1
(g2
g3
(dtRp787
stRp788
sVlamp_agent
p789
g1
(g2
g3
(dp790
g743
Vlamp_agent
p791
sg745
g1
(g2
g3
(dtRp792
sg747
g1
(g2
g3
(dp793
Vams.192.168.0.111
p794
(dp795
g763
S''
sg764
g765
sstRp796
sg749
g750
sg751
Vsecret
p797
sg753
g1
(g2
g3
(dtRp798
stRp799
sVnight_stand_agent
p800
g1
(g2
g3
(dp801
g743
Vnight_stand_agent
p802
sg745
g1
(g2
g3
(dtRp803
sg747
g1
(g2
g3
(dp804
Vams.192.168.0.111
p805
(dp806
g763
S''
sg764
g765
sstRp807
sg749
g750
sg751
Vsecret
p808
sg753
g1
(g2
g3
(dtRp809
stRp810
sVcontrol_agent
p811
g1
(g2
g3
(dp812
g743
Vcontrol_agent
p813
sg745
g1
(g2
g3
(dtRp814
sg747
g1
(g2
g3
(dp815
Vams.192.168.0.111
p816
(dp817
g763
S''
sg764
g765
sstRp818
sg749
g750
sg751
Vsecret
p819
sg753
g1
(g2
g3
(dtRp820
stRp821
sVrec_agent
p822
g1
(g2
g3
(dp823
g743
Vrec_agent
p824
sg745
g1
(g2
g3
(dtRp825
sg747
g1
(g2
g3
(dp826
Vams.192.168.0.111
p827
(dp828
g763
S''
sg764
g765
sstRp829
sg749
g750
sg751
Vsecret
p830
sg753
g1
(g2
g3
(dtRp831
stRp832
sS'ams'
p833
g1
(g2
g3
(dp834
g743
S'AMS'
p835
sg745
g1
(g2
g3
(dtRp836
sg747
g1
(g2
g3
(dp837
S'light_bulb_agent@192.168.0.111'
p838
(dp839
g763
S''
sg764
S'from'
p840
ssS'lamp_agent@192.168.0.111'
p841
(dp842
g763
S''
sg764
g840
ssS'blinds_agent@192.168.0.111'
p843
(dp844
g763
S''
sg764
g840
ssS'control_agent@192.168.0.111'
p845
(dp846
g763
S''
sg764
g840
ssS'night_stand_agent@192.168.0.111'
p847
(dp848
g763
S''
sg764
g840
ssS'rec_agent@192.168.0.111'
p849
(dp850
g763
S''
sg764
g840
sstRp851
sg749
g750
sg751
S'BCbMRiIS'
p852
sg753
g1
(g2
g3
(dtRp853
stRp854
sS'__ir__'
p855
(dp856
g749
g750
sg751
S'test'
p857
sg753
(dp858
S'karma'
p859
(dp860
S'down'
p861
I307200
sS'tot_up'
p862
I0
sS'tot_down'
p863
I0
sS'up'
p864
I307200307200307200
sS'last_time'
p865
F0
sssg745
(dp866
sg747
(dp867
sstRp868
sS'10.20.216.84'
p869
g1
(g2
g3
(dp870
S'acc'
p871
g1
(g2
g3
(dp872
S'name'
p873
S'ACC'
p874
sS'groups'
p875
g1
(g2
g3
(dtRp876
sS'roster'
p877
g1
(g2
g3
(dtRp878
sS'anon_allow'
p879
S'yes'
p880
sS'password'
p881
S'lGfGGHCM'
p882
sS'storage'
p883
g1
(g2
g3
(dtRp884
stRp885
sVlight_bulb_agent
p886
g1
(g2
g3
(dp887
g873
Vlight_bulb_agent
p888
sg875
g1
(g2
g3
(dtRp889
sg877
g1
(g2
g3
(dp890
Vams.10.20.216.84
p891
(dp892
S'state'
p893
S''
sS'subscription'
p894
S'none'
p895
sstRp896
sg879
g880
sg881
Vsecret
p897
sg883
g1
(g2
g3
(dtRp898
stRp899
sVblinds_agent
p900
g1
(g2
g3
(dp901
g873
Vblinds_agent
p902
sg875
g1
(g2
g3
(dtRp903
sg877
g1
(g2
g3
(dp904
Vams.10.20.216.84
p905
(dp906
g893
S''
sg894
g895
sstRp907
sg879
g880
sg881
Vsecret
p908
sg883
g1
(g2
g3
(dtRp909
stRp910
sS'df'
p911
g1
(g2
g3
(dp912
g873
S'DF'
p913
sg875
g1
(g2
g3
(dtRp914
sg877
g1
(g2
g3
(dtRp915
sg879
g880
sg881
S'UErJKjwN'
p916
sg883
g1
(g2
g3
(dtRp917
stRp918
sVlamp_agent
p919
g1
(g2
g3
(dp920
g873
Vlamp_agent
p921
sg875
g1
(g2
g3
(dtRp922
sg877
g1
(g2
g3
(dp923
Vams.10.20.216.84
p924
(dp925
g893
S''
sg894
g895
sstRp926
sg879
g880
sg881
Vsecret
p927
sg883
g1
(g2
g3
(dtRp928
stRp929
sVnight_stand_agent
p930
g1
(g2
g3
(dp931
g873
Vnight_stand_agent
p932
sg875
g1
(g2
g3
(dtRp933
sg877
g1
(g2
g3
(dp934
Vams.10.20.216.84
p935
(dp936
g893
S''
sg894
g895
sstRp937
sg879
g880
sg881
Vsecret
p938
sg883
g1
(g2
g3
(dtRp939
stRp940
sVcontrol_agent
p941
g1
(g2
g3
(dp942
g873
Vcontrol_agent
p943
sg875
g1
(g2
g3
(dtRp944
sg877
g1
(g2
g3
(dp945
Vams.10.20.216.84
p946
(dp947
g893
S''
sg894
g895
sstRp948
sg879
g880
sg881
Vsecret
p949
sg883
g1
(g2
g3
(dtRp950
stRp951
sVrec_agent
p952
g1
(g2
g3
(dp953
g873
Vrec_agent
p954
sg875
g1
(g2
g3
(dtRp955
sg877
g1
(g2
g3
(dp956
Vams.10.20.216.84
p957
(dp958
g893
S''
sg894
g895
sstRp959
sg879
g880
sg881
Vsecret
p960
sg883
g1
(g2
g3
(dtRp961
stRp962
sS'ams'
p963
g1
(g2
g3
(dp964
g873
S'AMS'
p965
sg875
g1
(g2
g3
(dtRp966
sg877
g1
(g2
g3
(dp967
S'lamp_agent@10.20.216.84'
p968
(dp969
g893
S''
sg894
g895
ssS'rec_agent@10.20.216.84'
p970
(dp971
g893
S''
sg894
g895
ssS'light_bulb_agent@10.20.216.84'
p972
(dp973
g893
S''
sg894
g895
ssS'night_stand_agent@10.20.216.84'
p974
(dp975
g893
S''
sg894
g895
ssS'blinds_agent@10.20.216.84'
p976
(dp977
g893
S''
sg894
g895
ssS'control_agent@10.20.216.84'
p978
(dp979
g893
S''
sg894
g895
sstRp980
sg879
g880
sg881
S'GAGmPvlv'
p981
sg883
g1
(g2
g3
(dtRp982
stRp983
sS'__ir__'
p984
(dp985
g879
g880
sg881
S'test'
p986
sg883
(dp987
S'karma'
p988
(dp989
S'down'
p990
I307200
sS'tot_up'
p991
I0
sS'tot_down'
p992
I0
sS'up'
p993
I307200307200307200
sS'last_time'
p994
F0
sssg875
(dp995
sg877
(dp996
sstRp997
stRp998
.